; Function Attrs: nounwind uwtable
define internal range(i32 -1, 1) i32 @H5FD_multi_truncate(ptr noundef readonly captures(none) %0, i64 noundef %1, i1 noundef zeroext %2) #0 {
  %4 = alloca i32, align 4
  %5 = alloca %union.anon.8, align 8
  %6 = alloca ptr, align 8
  %7 = tail call i32 @H5Eclear2(i64 noundef 0) #15
  %8 = getelementptr inbounds nuw i8, ptr %0, i64 344
  br label %9

9:                                                ; preds = %3, %33
  %indvars.iv = phi i64 [ 1, %3 ], [ %indvars.iv.next, %33 ]
  %.017 = phi i32 [ 0, %3 ], [ %.2, %33 ]
  %10 = getelementptr inbounds nuw [7 x ptr], ptr %8, i64 0, i64 %indvars.iv
  %11 = load ptr, ptr %10, align 8, !tbaa !15
  %.not13 = icmp eq ptr %11, null
  br i1 %.not13, label %33, label %12

12:                                               ; preds = %9
  call void @llvm.lifetime.start.p0(i64 4, ptr nonnull %4) #15
  call void @llvm.lifetime.start.p0(i64 8, ptr nonnull %5) #15
  call void @llvm.lifetime.start.p0(i64 8, ptr nonnull %6) #15
  %13 = call i32 @H5Eauto_is_v2(i64 noundef 0, ptr noundef nonnull %4) #15
  %14 = load i32, ptr %4, align 4, !tbaa !3
  %.not14 = icmp eq i32 %14, 0
  br i1 %.not14, label %18, label %15

15:                                               ; preds = %12
  %16 = call i32 @H5Eget_auto2(i64 noundef 0, ptr noundef nonnull %5, ptr noundef nonnull %6) #15
  %17 = call i32 @H5Eset_auto2(i64 noundef 0, ptr noundef null, ptr noundef null) #15
  br label %21

18:                                               ; preds = %12
  %19 = call i32 @H5Eget_auto1(ptr noundef nonnull %5, ptr noundef nonnull %6) #15
  %20 = call i32 @H5Eset_auto1(ptr noundef null, ptr noundef null) #15
  br label %21

21:                                               ; preds = %18, %15
  %22 = load ptr, ptr %10, align 8, !tbaa !15
  %23 = call i32 @H5FDtruncate(ptr noundef %22, i64 noundef %1, i1 noundef zeroext %2) #15
  %24 = lshr i32 %23, 31
  %spec.select = add i32 %24, %.017
  %25 = load i32, ptr %4, align 4, !tbaa !3
  %.not15 = icmp eq i32 %25, 0
  %26 = load ptr, ptr %5, align 8, !tbaa !13
  %27 = load ptr, ptr %6, align 8, !tbaa !39
  br i1 %.not15, label %30, label %28

28:                                               ; preds = %21
  %29 = call i32 @H5Eset_auto2(i64 noundef 0, ptr noundef %26, ptr noundef %27) #15
  br label %32

30:                                               ; preds = %21
  %31 = call i32 @H5Eset_auto1(ptr noundef %26, ptr noundef %27) #15
  br label %32

32:                                               ; preds = %30, %28
  call void @llvm.lifetime.end.p0(i64 8, ptr nonnull %6) #15
  call void @llvm.lifetime.end.p0(i64 8, ptr nonnull %5) #15
  call void @llvm.lifetime.end.p0(i64 4, ptr nonnull %4) #15
  br label %33

33:                                               ; preds = %9, %32
  %.2 = phi i32 [ %spec.select, %32 ], [ %.017, %9 ]
  %indvars.iv.next = add nuw nsw i64 %indvars.iv, 1
  %exitcond.not = icmp eq i64 %indvars.iv.next, 7
  br i1 %exitcond.not, label %34, label %9, !llvm.loop !61

34:                                               ; preds = %33
  %.not = icmp eq i32 %.2, 0
  br i1 %.not, label %64, label %35

35:                                               ; preds = %34
  %36 = load i8, ptr @H5_libinit_g, align 1, !tbaa !18, !range !20, !noundef !21
  %37 = trunc nuw i8 %36 to i1
  %38 = load i8, ptr @H5_libterm_g, align 1, !range !20
  %39 = trunc nuw i8 %38 to i1
  %40 = select i1 %37, i1 true, i1 %39
  br i1 %40, label %43, label %41, !prof !22

41:                                               ; preds = %35
  %42 = call i32 @H5open() #15
  %.pre = load i8, ptr @H5_libinit_g, align 1, !tbaa !18, !range !20
  %.pre19 = load i8, ptr @H5_libterm_g, align 1, !range !20
  br label %43

43:                                               ; preds = %35, %41
  %44 = phi i8 [ %38, %35 ], [ %.pre19, %41 ]
  %45 = phi i8 [ %36, %35 ], [ %.pre, %41 ]
  %46 = load i64, ptr @H5E_ERR_CLS_g, align 8, !tbaa !23
  %47 = trunc nuw i8 %45 to i1
  %48 = trunc nuw i8 %44 to i1
  %49 = select i1 %47, i1 true, i1 %48
  br i1 %49, label %52, label %50, !prof !22

50:                                               ; preds = %43
  %51 = call i32 @H5open() #15
  %.pre20 = load i8, ptr @H5_libinit_g, align 1, !tbaa !18, !range !20
  %.pre21 = load i8, ptr @H5_libterm_g, align 1, !range !20
  br label %52

52:                                               ; preds = %43, %50
  %53 = phi i8 [ %44, %43 ], [ %.pre21, %50 ]
  %54 = phi i8 [ %45, %43 ], [ %.pre20, %50 ]
  %55 = load i64, ptr @H5E_INTERNAL_g, align 8, !tbaa !23
  %56 = trunc nuw i8 %54 to i1
  %57 = trunc nuw i8 %53 to i1
  %58 = select i1 %56, i1 true, i1 %57
  br i1 %58, label %61, label %59, !prof !22

59:                                               ; preds = %52
  %60 = call i32 @H5open() #15
  br label %61

61:                                               ; preds = %52, %59
  %62 = load i64, ptr @H5E_BADVALUE_g, align 8, !tbaa !23
  %63 = call i32 (i64, ptr, ptr, i32, i64, i64, i64, ptr, ...) @H5Epush2(i64 noundef 0, ptr noundef nonnull @.str.1, ptr noundef nonnull @__func__.H5FD_multi_truncate, i32 noundef 1751, i64 noundef %46, i64 noundef %55, i64 noundef %62, ptr noundef nonnull @.str.43) #15
  br label %64

64:                                               ; preds = %34, %61
  %.012 = phi i32 [ -1, %61 ], [ 0, %34 ]
  ret i32 %.012
}